; Function Attrs: mustprogress nounwind uwtable
define noundef i32 @_ZNK7glslang14TAttributeArgs4sizeEv(ptr nocapture noundef nonnull readonly align 8 dereferenceable(16) %0) local_unnamed_addr #0 align 2 {
  %2 = getelementptr inbounds i8, ptr %0, i64 8
  %3 = load ptr, ptr %2, align 8
  %4 = icmp eq ptr %3, null
  br i1 %4, label %19, label %5

5:                                                ; preds = %1
  %6 = load ptr, ptr %3, align 8
  %7 = getelementptr inbounds i8, ptr %6, i64 408
  %8 = load ptr, ptr %7, align 8
  %9 = tail call noundef nonnull align 8 dereferenceable(32) ptr %8(ptr noundef nonnull align 8 dereferenceable(364) %3) #11
  %10 = getelementptr inbounds i8, ptr %9, i64 8
  %11 = getelementptr inbounds i8, ptr %9, i64 16
  %12 = load ptr, ptr %11, align 8
  %13 = load ptr, ptr %10, align 8
  %14 = ptrtoint ptr %12 to i64
  %15 = ptrtoint ptr %13 to i64
  %16 = sub i64 %14, %15
  %17 = lshr exact i64 %16, 3
  %18 = trunc i64 %17 to i32
  br label %19

19:                                               ; preds = %1, %5
  %20 = phi i32 [ %18, %5 ], [ 0, %1 ]
  ret i32 %20
}